target datalayout = "e-m:e-p270:32:32-p271:32:32-p272:64:64-i64:64-i128:128-f80:128-n8:16:32:64-S128"
target triple = "x86_64-pc-linux-gnu"

%struct.WindowAggState = type { %struct.ScanState, ptr, i32, i32, ptr, ptr, ptr, ptr, ptr, i32, i32, i32, i32, i64, i64, i64, i64, ptr, i64, i64, i32, i32, ptr, ptr, i64, i64, %struct.FmgrInfo, %struct.FmgrInfo, i32, i8, i8, i8, i8, ptr, i64, i64, i64, i64, i64, ptr, ptr, ptr, ptr, i8, i8, i8, i8, i8, i8, i8, ptr, ptr, ptr, ptr, ptr, ptr }
%struct.ScanState = type { %struct.PlanState, ptr, ptr, ptr }
%struct.PlanState = type { i32, ptr, ptr, ptr, ptr, ptr, ptr, ptr, ptr, ptr, ptr, ptr, ptr, ptr, ptr, ptr, ptr, ptr, i8, ptr, ptr, ptr, ptr, ptr, i8, i8, i8, i8, i8, i8, i8, i8 }
%struct.FmgrInfo = type { ptr, i32, i16, i8, i8, i8, ptr, ptr, ptr }
%struct.ExprContext = type { i32, ptr, ptr, ptr, ptr, ptr, ptr, ptr, ptr, ptr, i64, i8, i64, i8, ptr, ptr, ptr, ptr }
%struct.WindowObjectData = type { i32, ptr, ptr, ptr, i32, i32, i64, i64 }

@CurrentMemoryContext = external global ptr, align 8
@.str.3 = private unnamed_addr constant [16 x i8] c"nodeWindowAgg.c\00", align 1
@InterruptPending = external global i32, align 4
@.str.9 = private unnamed_addr constant [29 x i8] c"unexpected end of tuplestore\00", align 1
@.str.24 = private unnamed_addr constant [53 x i8] c"cannot fetch row before WindowObject's mark position\00", align 1
@__func__.window_gettupleslot = private unnamed_addr constant [20 x i8] c"window_gettupleslot\00", align 1

; Function Attrs: inlinehint nounwind uwtable
define internal ptr @MemoryContextSwitchTo(ptr noundef %0) #2 {
  %2 = alloca ptr, align 8
  %3 = alloca ptr, align 8
  store ptr %0, ptr %2, align 8
  call void @llvm.lifetime.start.p0(i64 8, ptr %3) #8
  %4 = load ptr, ptr @CurrentMemoryContext, align 8
  store ptr %4, ptr %3, align 8
  %5 = load ptr, ptr %2, align 8
  store ptr %5, ptr @CurrentMemoryContext, align 8
  %6 = load ptr, ptr %3, align 8
  call void @llvm.lifetime.end.p0(i64 8, ptr %3) #8
  ret ptr %6
}

; Function Attrs: nounwind uwtable
define internal zeroext i1 @window_gettupleslot(ptr noundef %0, i64 noundef %1, ptr noundef %2) #0 {
  %4 = alloca i1, align 1
  %5 = alloca ptr, align 8
  %6 = alloca i64, align 8
  %7 = alloca ptr, align 8
  %8 = alloca ptr, align 8
  %9 = alloca ptr, align 8
  %10 = alloca i32, align 4
  store ptr %0, ptr %5, align 8
  store i64 %1, ptr %6, align 8
  store ptr %2, ptr %7, align 8
  call void @llvm.lifetime.start.p0(i64 8, ptr %8) #8
  %11 = load ptr, ptr %5, align 8
  %12 = getelementptr inbounds nuw %struct.WindowObjectData, ptr %11, i32 0, i32 1
  %13 = load ptr, ptr %12, align 8
  store ptr %13, ptr %8, align 8
  call void @llvm.lifetime.start.p0(i64 8, ptr %9) #8
  br label %14

14:                                               ; preds = %3
  %15 = load volatile i32, ptr @InterruptPending, align 4
  %16 = icmp ne i32 %15, 0
  %17 = zext i1 %16 to i32
  %18 = sext i32 %17 to i64
  %19 = call i64 @llvm.expect.i64(i64 %18, i64 0)
  %20 = icmp ne i64 %19, 0
  br i1 %20, label %21, label %22

21:                                               ; preds = %14
  call void @ProcessInterrupts()
  br label %22

22:                                               ; preds = %21, %14
  br label %23

23:                                               ; preds = %22
  br label %24

24:                                               ; preds = %23
  %25 = load i64, ptr %6, align 8
  %26 = icmp slt i64 %25, 0
  br i1 %26, label %27, label %28

27:                                               ; preds = %24
  store i1 false, ptr %4, align 1
  store i32 1, ptr %10, align 4
  br label %206

28:                                               ; preds = %24
  %29 = load ptr, ptr %8, align 8
  %30 = load i64, ptr %6, align 8
  call void @spool_tuples(ptr noundef %29, i64 noundef %30)
  %31 = load i64, ptr %6, align 8
  %32 = load ptr, ptr %8, align 8
  %33 = getelementptr inbounds nuw %struct.WindowAggState, ptr %32, i32 0, i32 13
  %34 = load i64, ptr %33, align 8
  %35 = icmp sge i64 %31, %34
  br i1 %35, label %36, label %37

36:                                               ; preds = %28
  store i1 false, ptr %4, align 1
  store i32 1, ptr %10, align 4
  br label %206

37:                                               ; preds = %28
  %38 = load i64, ptr %6, align 8
  %39 = load ptr, ptr %5, align 8
  %40 = getelementptr inbounds nuw %struct.WindowObjectData, ptr %39, i32 0, i32 6
  %41 = load i64, ptr %40, align 8
  %42 = icmp slt i64 %38, %41
  br i1 %42, label %43, label %54

43:                                               ; preds = %37
  br label %44

44:                                               ; preds = %43
  br i1 true, label %45, label %47

45:                                               ; preds = %44
  %46 = call zeroext i1 @errstart_cold(i32 noundef 21, ptr noundef null) #9
  br i1 %46, label %49, label %51

47:                                               ; preds = %44
  %48 = call zeroext i1 @errstart(i32 noundef 21, ptr noundef null)
  br i1 %48, label %49, label %51

49:                                               ; preds = %47, %45
  %50 = call i32 (ptr, ...) @errmsg_internal(ptr noundef @.str.24)
  call void @errfinish(ptr noundef @.str.3, i32 noundef 3151, ptr noundef @__func__.window_gettupleslot)
  br label %51

51:                                               ; preds = %49, %47, %45
  unreachable

52:                                               ; No predecessors!
  br label %53

53:                                               ; preds = %52
  br label %54

54:                                               ; preds = %53, %37
  %55 = load ptr, ptr %8, align 8
  %56 = getelementptr inbounds nuw %struct.WindowAggState, ptr %55, i32 0, i32 0
  %57 = getelementptr inbounds nuw %struct.ScanState, ptr %56, i32 0, i32 0
  %58 = getelementptr inbounds nuw %struct.PlanState, ptr %57, i32 0, i32 16
  %59 = load ptr, ptr %58, align 8
  %60 = getelementptr inbounds nuw %struct.ExprContext, ptr %59, i32 0, i32 4
  %61 = load ptr, ptr %60, align 8
  %62 = call ptr @MemoryContextSwitchTo(ptr noundef %61)
  store ptr %62, ptr %9, align 8
  %63 = load ptr, ptr %8, align 8
  %64 = getelementptr inbounds nuw %struct.WindowAggState, ptr %63, i32 0, i32 8
  %65 = load ptr, ptr %64, align 8
  %66 = load ptr, ptr %5, align 8
  %67 = getelementptr inbounds nuw %struct.WindowObjectData, ptr %66, i32 0, i32 5
  %68 = load i32, ptr %67, align 4
  call void @tuplestore_select_read_pointer(ptr noundef %65, i32 noundef %68)
  %69 = load ptr, ptr %5, align 8
  %70 = getelementptr inbounds nuw %struct.WindowObjectData, ptr %69, i32 0, i32 7
  %71 = load i64, ptr %70, align 8
  %72 = load i64, ptr %6, align 8
  %73 = sub i64 %72, 1
  %74 = icmp slt i64 %71, %73
  br i1 %74, label %75, label %102

75:                                               ; preds = %54
  %76 = load ptr, ptr %8, align 8
  %77 = getelementptr inbounds nuw %struct.WindowAggState, ptr %76, i32 0, i32 8
  %78 = load ptr, ptr %77, align 8
  %79 = load i64, ptr %6, align 8
  %80 = sub i64 %79, 1
  %81 = load ptr, ptr %5, align 8
  %82 = getelementptr inbounds nuw %struct.WindowObjectData, ptr %81, i32 0, i32 7
  %83 = load i64, ptr %82, align 8
  %84 = sub i64 %80, %83
  %85 = call zeroext i1 @tuplestore_skiptuples(ptr noundef %78, i64 noundef %84, i1 noundef zeroext true)
  br i1 %85, label %97, label %86

86:                                               ; preds = %75
  br label %87

87:                                               ; preds = %86
  br i1 true, label %88, label %90

88:                                               ; preds = %87
  %89 = call zeroext i1 @errstart_cold(i32 noundef 21, ptr noundef null) #9
  br i1 %89, label %92, label %94

90:                                               ; preds = %87
  %91 = call zeroext i1 @errstart(i32 noundef 21, ptr noundef null)
  br i1 %91, label %92, label %94

92:                                               ; preds = %90, %88
  %93 = call i32 (ptr, ...) @errmsg_internal(ptr noundef @.str.9)
  call void @errfinish(ptr noundef @.str.3, i32 noundef 3165, ptr noundef @__func__.window_gettupleslot)
  br label %94

94:                                               ; preds = %92, %90, %88
  unreachable

95:                                               ; No predecessors!
  br label %96

96:                                               ; preds = %95
  br label %97

97:                                               ; preds = %96, %75
  %98 = load i64, ptr %6, align 8
  %99 = sub i64 %98, 1
  %100 = load ptr, ptr %5, align 8
  %101 = getelementptr inbounds nuw %struct.WindowObjectData, ptr %100, i32 0, i32 7
  store i64 %99, ptr %101, align 8
  br label %153

102:                                              ; preds = %54
  %103 = load ptr, ptr %5, align 8
  %104 = getelementptr inbounds nuw %struct.WindowObjectData, ptr %103, i32 0, i32 7
  %105 = load i64, ptr %104, align 8
  %106 = load i64, ptr %6, align 8
  %107 = add i64 %106, 1
  %108 = icmp sgt i64 %105, %107
  br i1 %108, label %109, label %136

109:                                              ; preds = %102
  %110 = load ptr, ptr %8, align 8
  %111 = getelementptr inbounds nuw %struct.WindowAggState, ptr %110, i32 0, i32 8
  %112 = load ptr, ptr %111, align 8
  %113 = load ptr, ptr %5, align 8
  %114 = getelementptr inbounds nuw %struct.WindowObjectData, ptr %113, i32 0, i32 7
  %115 = load i64, ptr %114, align 8
  %116 = load i64, ptr %6, align 8
  %117 = add i64 %116, 1
  %118 = sub i64 %115, %117
  %119 = call zeroext i1 @tuplestore_skiptuples(ptr noundef %112, i64 noundef %118, i1 noundef zeroext false)
  br i1 %119, label %131, label %120

120:                                              ; preds = %109
  br label %121

121:                                              ; preds = %120
  br i1 true, label %122, label %124

122:                                              ; preds = %121
  %123 = call zeroext i1 @errstart_cold(i32 noundef 21, ptr noundef null) #9
  br i1 %123, label %126, label %128

124:                                              ; preds = %121
  %125 = call zeroext i1 @errstart(i32 noundef 21, ptr noundef null)
  br i1 %125, label %126, label %128

126:                                              ; preds = %124, %122
  %127 = call i32 (ptr, ...) @errmsg_internal(ptr noundef @.str.9)
  call void @errfinish(ptr noundef @.str.3, i32 noundef 3173, ptr noundef @__func__.window_gettupleslot)
  br label %128

128:                                              ; preds = %126, %124, %122
  unreachable

129:                                              ; No predecessors!
  br label %130

130:                                              ; preds = %129
  br label %131

131:                                              ; preds = %130, %109
  %132 = load i64, ptr %6, align 8
  %133 = add i64 %132, 1
  %134 = load ptr, ptr %5, align 8
  %135 = getelementptr inbounds nuw %struct.WindowObjectData, ptr %134, i32 0, i32 7
  store i64 %133, ptr %135, align 8
  br label %152

136:                                              ; preds = %102
  %137 = load ptr, ptr %5, align 8
  %138 = getelementptr inbounds nuw %struct.WindowObjectData, ptr %137, i32 0, i32 7
  %139 = load i64, ptr %138, align 8
  %140 = load i64, ptr %6, align 8
  %141 = icmp eq i64 %139, %140
  br i1 %141, label %142, label %151

142:                                              ; preds = %136
  %143 = load ptr, ptr %8, align 8
  %144 = getelementptr inbounds nuw %struct.WindowAggState, ptr %143, i32 0, i32 8
  %145 = load ptr, ptr %144, align 8
  %146 = call zeroext i1 @tuplestore_advance(ptr noundef %145, i1 noundef zeroext true)
  %147 = load ptr, ptr %5, align 8
  %148 = getelementptr inbounds nuw %struct.WindowObjectData, ptr %147, i32 0, i32 7
  %149 = load i64, ptr %148, align 8
  %150 = add i64 %149, 1
  store i64 %150, ptr %148, align 8
  br label %151

151:                                              ; preds = %142, %136
  br label %152

152:                                              ; preds = %151, %131
  br label %153

153:                                              ; preds = %152, %97
  %154 = load ptr, ptr %5, align 8
  %155 = getelementptr inbounds nuw %struct.WindowObjectData, ptr %154, i32 0, i32 7
  %156 = load i64, ptr %155, align 8
  %157 = load i64, ptr %6, align 8
  %158 = icmp sgt i64 %156, %157
  br i1 %158, label %159, label %181

159:                                              ; preds = %153
  %160 = load ptr, ptr %8, align 8
  %161 = getelementptr inbounds nuw %struct.WindowAggState, ptr %160, i32 0, i32 8
  %162 = load ptr, ptr %161, align 8
  %163 = load ptr, ptr %7, align 8
  %164 = call zeroext i1 @tuplestore_gettupleslot(ptr noundef %162, i1 noundef zeroext false, i1 noundef zeroext true, ptr noundef %163)
  br i1 %164, label %176, label %165

165:                                              ; preds = %159
  br label %166

166:                                              ; preds = %165
  br i1 true, label %167, label %169

167:                                              ; preds = %166
  %168 = call zeroext i1 @errstart_cold(i32 noundef 21, ptr noundef null) #9
  br i1 %168, label %171, label %173

169:                                              ; preds = %166
  %170 = call zeroext i1 @errstart(i32 noundef 21, ptr noundef null)
  br i1 %170, label %171, label %173

171:                                              ; preds = %169, %167
  %172 = call i32 (ptr, ...) @errmsg_internal(ptr noundef @.str.9)
  call void @errfinish(ptr noundef @.str.3, i32 noundef 3200, ptr noundef @__func__.window_gettupleslot)
  br label %173

173:                                              ; preds = %171, %169, %167
  unreachable

174:                                              ; No predecessors!
  br label %175

175:                                              ; preds = %174
  br label %176

176:                                              ; preds = %175, %159
  %177 = load ptr, ptr %5, align 8
  %178 = getelementptr inbounds nuw %struct.WindowObjectData, ptr %177, i32 0, i32 7
  %179 = load i64, ptr %178, align 8
  %180 = add i64 %179, -1
  store i64 %180, ptr %178, align 8
  br label %203

181:                                              ; preds = %153
  %182 = load ptr, ptr %8, align 8
  %183 = getelementptr inbounds nuw %struct.WindowAggState, ptr %182, i32 0, i32 8
  %184 = load ptr, ptr %183, align 8
  %185 = load ptr, ptr %7, align 8
  %186 = call zeroext i1 @tuplestore_gettupleslot(ptr noundef %184, i1 noundef zeroext true, i1 noundef zeroext true, ptr noundef %185)
  br i1 %186, label %198, label %187

187:                                              ; preds = %181
  br label %188

188:                                              ; preds = %187
  br i1 true, label %189, label %191

189:                                              ; preds = %188
  %190 = call zeroext i1 @errstart_cold(i32 noundef 21, ptr noundef null) #9
  br i1 %190, label %193, label %195

191:                                              ; preds = %188
  %192 = call zeroext i1 @errstart(i32 noundef 21, ptr noundef null)
  br i1 %192, label %193, label %195

193:                                              ; preds = %191, %189
  %194 = call i32 (ptr, ...) @errmsg_internal(ptr noundef @.str.9)
  call void @errfinish(ptr noundef @.str.3, i32 noundef 3206, ptr noundef @__func__.window_gettupleslot)
  br label %195

195:                                              ; preds = %193, %191, %189
  unreachable

196:                                              ; No predecessors!
  br label %197

197:                                              ; preds = %196
  br label %198

198:                                              ; preds = %197, %181
  %199 = load ptr, ptr %5, align 8
  %200 = getelementptr inbounds nuw %struct.WindowObjectData, ptr %199, i32 0, i32 7
  %201 = load i64, ptr %200, align 8
  %202 = add i64 %201, 1
  store i64 %202, ptr %200, align 8
  br label %203

203:                                              ; preds = %198, %176
  %204 = load ptr, ptr %9, align 8
  %205 = call ptr @MemoryContextSwitchTo(ptr noundef %204)
  store i1 true, ptr %4, align 1
  store i32 1, ptr %10, align 4
  br label %206

206:                                              ; preds = %203, %36, %27
  call void @llvm.lifetime.end.p0(i64 8, ptr %9) #8
  call void @llvm.lifetime.end.p0(i64 8, ptr %8) #8
  %207 = load i1, ptr %4, align 1
  ret i1 %207
}