; Function Attrs: nounwind uwtable
define internal fastcc noundef zeroext i1 @window_gettupleslot(ptr noundef captures(none) %0, i64 noundef %1, ptr noundef %2) unnamed_addr #0 {
  %4 = getelementptr inbounds nuw i8, ptr %0, i64 8
  %5 = load ptr, ptr %4, align 8
  %6 = load volatile i32, ptr @InterruptPending, align 4
  %.not = icmp eq i32 %6, 0
  br i1 %.not, label %8, label %7, !prof !8

7:                                                ; preds = %3
  tail call void @ProcessInterrupts() #9
  br label %8

8:                                                ; preds = %7, %3
  %9 = icmp slt i64 %1, 0
  br i1 %9, label %76, label %10

10:                                               ; preds = %8
  tail call fastcc void @spool_tuples(ptr noundef %5, i64 noundef %1)
  %11 = getelementptr inbounds nuw i8, ptr %5, i64 296
  %12 = load i64, ptr %11, align 8
  %.not42 = icmp slt i64 %1, %12
  br i1 %.not42, label %13, label %76

13:                                               ; preds = %10
  %14 = getelementptr inbounds nuw i8, ptr %0, i64 40
  %15 = load i64, ptr %14, align 8
  %16 = icmp slt i64 %1, %15
  br i1 %16, label %17, label %20

17:                                               ; preds = %13
  %18 = tail call zeroext i1 @errstart_cold(i32 noundef 21, ptr noundef null) #10
  tail call void @llvm.assume(i1 %18)
  %19 = tail call i32 (ptr, ...) @errmsg_internal(ptr noundef nonnull @.str.24) #9
  tail call void @errfinish(ptr noundef nonnull @.str.3, i32 noundef 3151, ptr noundef nonnull @__func__.window_gettupleslot) #9
  unreachable

20:                                               ; preds = %13
  %21 = getelementptr inbounds nuw i8, ptr %5, i64 128
  %22 = load ptr, ptr %21, align 8
  %23 = getelementptr inbounds nuw i8, ptr %22, i64 32
  %24 = load ptr, ptr %23, align 8
  %25 = load ptr, ptr @CurrentMemoryContext, align 8
  store ptr %24, ptr @CurrentMemoryContext, align 8
  %26 = getelementptr inbounds nuw i8, ptr %5, i64 272
  %27 = load ptr, ptr %26, align 8
  %28 = getelementptr inbounds nuw i8, ptr %0, i64 36
  %29 = load i32, ptr %28, align 4
  tail call void @tuplestore_select_read_pointer(ptr noundef %27, i32 noundef %29) #9
  %30 = getelementptr inbounds nuw i8, ptr %0, i64 48
  %31 = load i64, ptr %30, align 8
  %32 = add nsw i64 %1, -1
  %33 = icmp slt i64 %31, %32
  br i1 %33, label %34, label %41

34:                                               ; preds = %20
  %35 = load ptr, ptr %26, align 8
  %36 = sub i64 %32, %31
  %37 = tail call zeroext i1 @tuplestore_skiptuples(ptr noundef %35, i64 noundef %36, i1 noundef zeroext true) #9
  br i1 %37, label %.thread43, label %38

38:                                               ; preds = %34
  %39 = tail call zeroext i1 @errstart_cold(i32 noundef 21, ptr noundef null) #10
  tail call void @llvm.assume(i1 %39)
  %40 = tail call i32 (ptr, ...) @errmsg_internal(ptr noundef nonnull @.str.9) #9
  tail call void @errfinish(ptr noundef nonnull @.str.3, i32 noundef 3165, ptr noundef nonnull @__func__.window_gettupleslot) #9
  unreachable

.thread43:                                        ; preds = %34
  store i64 %32, ptr %30, align 8
  br label %67

41:                                               ; preds = %20
  %42 = add nuw nsw i64 %1, 1
  %43 = icmp sgt i64 %31, %42
  br i1 %43, label %44, label %51

44:                                               ; preds = %41
  %45 = load ptr, ptr %26, align 8
  %46 = sub nsw i64 %31, %42
  %47 = tail call zeroext i1 @tuplestore_skiptuples(ptr noundef %45, i64 noundef %46, i1 noundef zeroext false) #9
  br i1 %47, label %.thread, label %48

48:                                               ; preds = %44
  %49 = tail call zeroext i1 @errstart_cold(i32 noundef 21, ptr noundef null) #10
  tail call void @llvm.assume(i1 %49)
  %50 = tail call i32 (ptr, ...) @errmsg_internal(ptr noundef nonnull @.str.9) #9
  tail call void @errfinish(ptr noundef nonnull @.str.3, i32 noundef 3173, ptr noundef nonnull @__func__.window_gettupleslot) #9
  unreachable

.thread:                                          ; preds = %44
  store i64 %42, ptr %30, align 8
  br label %61

51:                                               ; preds = %41
  %52 = icmp eq i64 %31, %1
  br i1 %52, label %53, label %58

53:                                               ; preds = %51
  %54 = load ptr, ptr %26, align 8
  %55 = tail call zeroext i1 @tuplestore_advance(ptr noundef %54, i1 noundef zeroext true) #9
  %56 = load i64, ptr %30, align 8
  %57 = add i64 %56, 1
  store i64 %57, ptr %30, align 8
  br label %58

58:                                               ; preds = %53, %51
  %59 = phi i64 [ %57, %53 ], [ %31, %51 ]
  %60 = icmp sgt i64 %59, %1
  br i1 %60, label %61, label %67

61:                                               ; preds = %.thread, %58
  %62 = load ptr, ptr %26, align 8
  %63 = tail call zeroext i1 @tuplestore_gettupleslot(ptr noundef %62, i1 noundef zeroext false, i1 noundef zeroext true, ptr noundef %2) #9
  br i1 %63, label %73, label %64

64:                                               ; preds = %61
  %65 = tail call zeroext i1 @errstart_cold(i32 noundef 21, ptr noundef null) #10
  tail call void @llvm.assume(i1 %65)
  %66 = tail call i32 (ptr, ...) @errmsg_internal(ptr noundef nonnull @.str.9) #9
  tail call void @errfinish(ptr noundef nonnull @.str.3, i32 noundef 3200, ptr noundef nonnull @__func__.window_gettupleslot) #9
  unreachable

67:                                               ; preds = %.thread43, %58
  %68 = load ptr, ptr %26, align 8
  %69 = tail call zeroext i1 @tuplestore_gettupleslot(ptr noundef %68, i1 noundef zeroext true, i1 noundef zeroext true, ptr noundef %2) #9
  br i1 %69, label %73, label %70

70:                                               ; preds = %67
  %71 = tail call zeroext i1 @errstart_cold(i32 noundef 21, ptr noundef null) #10
  tail call void @llvm.assume(i1 %71)
  %72 = tail call i32 (ptr, ...) @errmsg_internal(ptr noundef nonnull @.str.9) #9
  tail call void @errfinish(ptr noundef nonnull @.str.3, i32 noundef 3206, ptr noundef nonnull @__func__.window_gettupleslot) #9
  unreachable

73:                                               ; preds = %67, %61
  %.sink44 = phi i64 [ -1, %61 ], [ 1, %67 ]
  %74 = load i64, ptr %30, align 8
  %75 = add i64 %74, %.sink44
  store i64 %75, ptr %30, align 8
  store ptr %25, ptr @CurrentMemoryContext, align 8
  br label %76

76:                                               ; preds = %10, %8, %73
  %.0 = phi i1 [ true, %73 ], [ false, %8 ], [ false, %10 ]
  ret i1 %.0
}